target datalayout = "e-m:e-p270:32:32-p271:32:32-p272:64:64-i64:64-i128:128-f80:128-n8:16:32:64-S128"
target triple = "x86_64-pc-linux-gnu"

%struct.timeval = type { i64, i64 }
%struct.conn = type { ptr, i32, i8, i8, i8, i8, i8, i8, i8, i8, ptr, i32, i32, i32, %struct.event, i16, i16, ptr, ptr, i32, i32, ptr, ptr, ptr, i32, ptr, i32, i32, i32, i32, i32, i32, i32, %struct.sockaddr_in6, i32, i8, %struct.anon.9, %union.protocol_binary_request_header, i64, i64, i16, i32, i32, ptr, ptr, ptr, ptr, ptr, ptr }
%struct.event = type { %struct.event_callback, %union.anon.1, i32, ptr, %union.anon.3, i16, i16, %struct.timeval }
%struct.event_callback = type { %struct.anon, i16, i8, i8, %union.anon.0, ptr }
%struct.anon = type { ptr, ptr }
%union.anon.0 = type { ptr }
%union.anon.1 = type { %struct.anon.2 }
%struct.anon.2 = type { ptr, ptr }
%union.anon.3 = type { %struct.anon.4 }
%struct.anon.4 = type { %struct.anon.5, %struct.timeval }
%struct.anon.5 = type { ptr, ptr }
%struct.sockaddr_in6 = type { i16, i16, i32, %struct.in6_addr, i32 }
%struct.in6_addr = type { %union.anon.8 }
%union.anon.8 = type { [4 x i32] }
%struct.anon.9 = type { ptr, i64, i64 }
%union.protocol_binary_request_header = type { %struct.anon.10 }
%struct.anon.10 = type { i8, i8, i16, i8, i8, i16, i32, i32, i64 }
%struct.iovec = type { ptr, i64 }
%struct._mc_resp = type { ptr, ptr, i32, i32, ptr, ptr, ptr, [4 x %struct.iovec], i32, i8, i8, i8, i8, i8, i16, i16, i16, %struct.sockaddr_in6, i32, [1024 x i8] }
%struct._io_pending_t = type { i8, i8, i8, ptr, ptr, ptr, ptr, ptr, %struct.anon.12, [120 x i8] }
%struct.anon.12 = type { ptr }

; Function Attrs: nounwind uwtable
define internal void @storage_return_cb(ptr noundef %0) #0 {
  %2 = alloca ptr, align 8
  store ptr %0, ptr %2, align 8, !tbaa !136
  br label %3

3:                                                ; preds = %1
  %4 = load ptr, ptr %2, align 8, !tbaa !136
  %5 = getelementptr inbounds nuw %struct._io_pending_t, ptr %4, i32 0, i32 5
  %6 = load ptr, ptr %5, align 8, !tbaa !146
  %7 = getelementptr inbounds nuw %struct._mc_resp, ptr %6, i32 0, i32 12
  store i8 0, ptr %7, align 1, !tbaa !127
  %8 = load ptr, ptr %2, align 8, !tbaa !136
  %9 = getelementptr inbounds nuw %struct._io_pending_t, ptr %8, i32 0, i32 4
  %10 = load ptr, ptr %9, align 8, !tbaa !147
  %11 = getelementptr inbounds nuw %struct.conn, ptr %10, i32 0, i32 27
  %12 = load i32, ptr %11, align 4, !tbaa !128
  %13 = add nsw i32 %12, -1
  store i32 %13, ptr %11, align 4, !tbaa !128
  %14 = load ptr, ptr %2, align 8, !tbaa !136
  %15 = getelementptr inbounds nuw %struct._io_pending_t, ptr %14, i32 0, i32 4
  %16 = load ptr, ptr %15, align 8, !tbaa !147
  %17 = getelementptr inbounds nuw %struct.conn, ptr %16, i32 0, i32 27
  %18 = load i32, ptr %17, align 4, !tbaa !128
  %19 = icmp eq i32 %18, 0
  br i1 %19, label %20, label %24

20:                                               ; preds = %3
  %21 = load ptr, ptr %2, align 8, !tbaa !136
  %22 = getelementptr inbounds nuw %struct._io_pending_t, ptr %21, i32 0, i32 4
  %23 = load ptr, ptr %22, align 8, !tbaa !147
  call void @conn_worker_readd(ptr noundef %23)
  br label %24

24:                                               ; preds = %20, %3
  br label %25

25:                                               ; preds = %24
  ret void
}