; Function Attrs: nounwind uwtable
define internal void @storage_return_cb(ptr noundef readonly captures(none) %0) #0 {
  %2 = getelementptr inbounds nuw i8, ptr %0, i64 24
  %3 = load ptr, ptr %2, align 8, !tbaa !133
  %4 = getelementptr inbounds nuw i8, ptr %3, i64 119
  store i8 0, ptr %4, align 1, !tbaa !114
  %5 = getelementptr inbounds nuw i8, ptr %0, i64 16
  %6 = load ptr, ptr %5, align 8, !tbaa !134
  %7 = getelementptr inbounds nuw i8, ptr %6, i64 252
  %8 = load i32, ptr %7, align 4, !tbaa !115
  %9 = add nsw i32 %8, -1
  store i32 %9, ptr %7, align 4, !tbaa !115
  %10 = icmp eq i32 %9, 0
  br i1 %10, label %11, label %12

11:                                               ; preds = %1
  tail call void @conn_worker_readd(ptr noundef nonnull %6) #21
  br label %12

12:                                               ; preds = %1, %11
  ret void
}